Certificate:
    Data:
        Version: 3 (0x2)
        Serial Number:
            b3:b1:dc:33:0f:f3:a7:2e
    Signature Algorithm: sha256WithRSAEncryption
        Issuer: C=US, ST=Montana, L=Bozeman, O=Sawtooth, OU=Consulting, CN=www.wolfssl.com/emailAddress=info@wolfssl.com
        Validity
            Not Before: Apr  9 07:39:49 2017 GMT
            Not After : Jan  4 07:39:49 2020 GMT
        Subject: C=US, ST=Montana, L=Bozeman, O=Sawtooth, OU=Consulting, CN=www.wolfssl.com/emailAddress=info@wolfssl.com
        Subject Public Key Info:
            Public Key Algorithm: rsaEncryption
                Public-Key: (2048 bit)
                Modulus:
                    00:bf:0c:ca:2d:14:b2:1e:84:42:5b:cd:38:1f:4a:
                    f2:4d:75:10:f1:b6:35:9f:df:ca:7d:03:98:d3:ac:
                    de:03:66:ee:2a:f1:d8:b0:7d:6e:07:54:0b:10:98:
                    21:4d:80:cb:12:20:e7:cc:4f:de:45:7d:c9:72:77:
                    32:ea:ca:90:bb:69:52:10:03:2f:a8:f3:95:c5:f1:
                    8b:62:56:1b:ef:67:6f:a4:10:41:95:ad:0a:9b:e3:
                    a5:c0:b0:d2:70:76:50:30:5b:a8:e8:08:2c:7c:ed:
                    a7:a2:7a:8d:38:29:1c:ac:c7:ed:f2:7c:95:b0:95:
                    82:7d:49:5c:38:cd:77:25:ef:bd:80:75:53:94:3c:
                    3d:ca:63:5b:9f:15:b5:d3:1d:13:2f:19:d1:3c:db:
                    76:3a:cc:b8:7d:c9:e5:c2:d7:da:40:6f:d8:21:dc:
                    73:1b:42:2d:53:9c:fe:1a:fc:7d:ab:7a:36:3f:98:
                    de:84:7c:05:67:ce:6a:14:38:87:a9:f1:8c:b5:68:
                    cb:68:7f:71:20:2b:f5:a0:63:f5:56:2f:a3:26:d2:
                    b7:6f:b1:5a:17:d7:38:99:08:fe:93:58:6f:fe:c3:
                    13:49:08:16:0b:a7:4d:67:00:52:31:67:23:4e:98:
                    ed:51:45:1d:b9:04:d9:0b:ec:d8:28:b3:4b:bd:ed:
                    36:79
                Exponent: 65537 (0x10001)
        X509v3 extensions:
            X509v3 Subject Key Identifier: 
                27:8E:67:11:74:C3:26:1D:3F:ED:33:63:B3:A4:D8:1D:30:E5:E8:D5
            X509v3 Authority Key Identifier: 
                keyid:27:8E:67:11:74:C3:26:1D:3F:ED:33:63:B3:A4:D8:1D:30:E5:E8:D5
                DirName:/C=US/ST=Montana/L=Bozeman/O=Sawtooth/OU=Consulting/CN=www.wolfssl.com/emailAddress=info@wolfssl.com
                serial:B3:B1:DC:33:0F:F3:A7:2E

            X509v3 Basic Constraints: 
                CA:TRUE
            X509v3 Subject Alternative Name: 
                DNS:san1.wolfssl.com, DNS:san2.wolfssl.com, email:san@wolfssl.com, URI:http://san1.wolfssl.com/example-path/
    Signature Algorithm: sha256WithRSAEncryption
         19:2c:37:a2:58:dc:82:f6:56:30:62:c4:68:a1:b9:37:ea:0c:
         6c:bd:1e:ba:35:d9:9b:0d:4c:af:c1:b7:59:40:4e:4d:ca:b7:
         48:f0:74:37:4f:b2:4f:24:ad:2e:74:3a:28:ef:90:cc:86:eb:
         c3:f1:cc:84:61:36:cd:31:d9:b6:85:a9:39:ab:d5:7c:50:80:
         8d:0c:e0:b2:34:11:49:ac:1a:96:be:0a:12:9f:e6:85:07:13:
         7d:9a:6a:bc:73:b9:80:4d:60:fa:f8:a3:b9:91:49:a6:94:6d:
         b4:26:49:19:41:25:53:c9:e0:f6:48:0d:ef:56:a8:13:26:32:
         1f:13:07:46:cd:1c:cd:b0:45:c0:e4:7d:a4:0c:7c:e7:cc:04:
         95:69:a9:e1:76:f4:9b:11:dd:d7:91:ec:bd:50:2f:23:84:38:
         6e:29:4a:be:b6:3d:cd:c5:59:f2:b4:37:c0:76:b0:52:3e:f5:
         5b:e1:15:8e:bb:82:70:da:b8:b8:1d:5b:6b:02:03:2a:cb:04:
         7b:6e:44:65:64:b3:25:94:21:03:d0:27:32:4f:f6:e3:8e:ca:
         37:f0:e8:fd:a5:c1:44:32:bf:ce:90:cb:53:af:df:c3:f0:7f:
         5b:52:59:d8:99:34:0e:36:12:ae:f4:99:d8:0b:4b:32:a9:af:
         91:8b:f5:59
-----BEGIN CERTIFICATE-----
MIIFEzCCA/ugAwIBAgIJALOx3DMP86cuMA0GCSqGSIb3DQEBCwUAMIGUMQswCQYD
VQQGEwJVUzEQMA4GA1UECAwHTW9udGFuYTEQMA4GA1UEBwwHQm96ZW1hbjERMA8G
A1UECgwIU2F3dG9vdGgxEzARBgNVBAsMCkNvbnN1bHRpbmcxGDAWBgNVBAMMD3d3
dy53b2xmc3NsLmNvbTEfMB0GCSqGSIb3DQEJARYQaW5mb0B3b2xmc3NsLmNvbTAe
Fw0xNzA0MDkwNzM5NDlaFw0yMDAxMDQwNzM5NDlaMIGUMQswCQYDVQQGEwJVUzEQ
MA4GA1UECAwHTW9udGFuYTEQMA4GA1UEBwwHQm96ZW1hbjERMA8GA1UECgwIU2F3
dG9vdGgxEzARBgNVBAsMCkNvbnN1bHRpbmcxGDAWBgNVBAMMD3d3dy53b2xmc3Ns
LmNvbTEfMB0GCSqGSIb3DQEJARYQaW5mb0B3b2xmc3NsLmNvbTCCASIwDQYJKoZI
hvcNAQEBBQADggEPADCCAQoCggEBAL8Myi0Ush6EQlvNOB9K8k11EPG2NZ/fyn0D
mNOs3gNm7irx2LB9bgdUCxCYIU2AyxIg58xP3kV9yXJ3MurKkLtpUhADL6jzlcXx
i2JWG+9nb6QQQZWtCpvjpcCw0nB2UDBbqOgILHztp6J6jTgpHKzH7fJ8lbCVgn1J
XDjNdyXvvYB1U5Q8PcpjW58VtdMdEy8Z0TzbdjrMuH3J5cLX2kBv2CHccxtCLVOc
/hr8fat6Nj+Y3oR8BWfOahQ4h6nxjLVoy2h/cSAr9aBj9VYvoybSt2+xWhfXOJkI
/pNYb/7DE0kIFgunTWcAUjFnI06Y7VFFHbkE2Qvs2CizS73tNnkCAwEAAaOCAWQw
ggFgMB0GA1UdDgQWBBQnjmcRdMMmHT/tM2OzpNgdMOXo1TCByQYDVR0jBIHBMIG+
gBQnjmcRdMMmHT/tM2OzpNgdMOXo1aGBmqSBlzCBlDELMAkGA1UEBhMCVVMxEDAO
BgNVBAgMB01vbnRhbmExEDAOBgNVBAcMB0JvemVtYW4xETAPBgNVBAoMCFNhd3Rv
b3RoMRMwEQYDVQQLDApDb25zdWx0aW5nMRgwFgYDVQQDDA93d3cud29sZnNzbC5j
b20xHzAdBgkqhkiG9w0BCQEWEGluZm9Ad29sZnNzbC5jb22CCQCzsdwzD/OnLjAM
BgNVHRMEBTADAQH/MGUGA1UdEQReMFyCEHNhbjEud29sZnNzbC5jb22CEHNhbjIu
d29sZnNzbC5jb22BD3NhbkB3b2xmc3NsLmNvbYYlaHR0cDovL3NhbjEud29sZnNz
bC5jb20vZXhhbXBsZS1wYXRoLzANBgkqhkiG9w0BAQsFAAOCAQEAGSw3oljcgvZW
MGLEaKG5N+oMbL0eujXZmw1Mr8G3WUBOTcq3SPB0N0+yTyStLnQ6KO+QzIbrw/HM
hGE2zTHZtoWpOavVfFCAjQzgsjQRSawalr4KEp/mhQcTfZpqvHO5gE1g+vijuZFJ
ppRttCZJGUElU8ng9kgN71aoEyYyHxMHRs0czbBFwOR9pAx858wElWmp4Xb0mxHd
15HsvVAvI4Q4bilKvrY9zcVZ8rQ3wHawUj71W+EVjruCcNq4uB1bawIDKssEe25E
ZWSzJZQhA9AnMk/2447KN/Do/aXBRDK/zpDLU6/fw/B/W1JZ2Jk0DjYSrvSZ2AtL
MqmvkYv1WQ==
-----END CERTIFICATE-----
