Certificate:
    Data:
        Version: 3 (0x2)
        Serial Number:
            d0:ba:4c:24:4e:55:b9:48
    Signature Algorithm: sha256WithRSAEncryption
        Issuer: C=US, ST=Montana, L=Bozeman, O=Sawtooth, OU=Consulting, CN=www.wolfssl.com/emailAddress=info@wolfssl.com
        Validity
            Not Before: Apr  9 07:27:07 2017 GMT
            Not After : Jan  4 07:27:07 2020 GMT
        Subject: C=US, ST=Montana, L=Bozeman, O=Sawtooth, OU=Consulting, CN=www.wolfssl.com/emailAddress=info@wolfssl.com
        Subject Public Key Info:
            Public Key Algorithm: rsaEncryption
                Public-Key: (2048 bit)
                Modulus:
                    00:bf:0c:ca:2d:14:b2:1e:84:42:5b:cd:38:1f:4a:
                    f2:4d:75:10:f1:b6:35:9f:df:ca:7d:03:98:d3:ac:
                    de:03:66:ee:2a:f1:d8:b0:7d:6e:07:54:0b:10:98:
                    21:4d:80:cb:12:20:e7:cc:4f:de:45:7d:c9:72:77:
                    32:ea:ca:90:bb:69:52:10:03:2f:a8:f3:95:c5:f1:
                    8b:62:56:1b:ef:67:6f:a4:10:41:95:ad:0a:9b:e3:
                    a5:c0:b0:d2:70:76:50:30:5b:a8:e8:08:2c:7c:ed:
                    a7:a2:7a:8d:38:29:1c:ac:c7:ed:f2:7c:95:b0:95:
                    82:7d:49:5c:38:cd:77:25:ef:bd:80:75:53:94:3c:
                    3d:ca:63:5b:9f:15:b5:d3:1d:13:2f:19:d1:3c:db:
                    76:3a:cc:b8:7d:c9:e5:c2:d7:da:40:6f:d8:21:dc:
                    73:1b:42:2d:53:9c:fe:1a:fc:7d:ab:7a:36:3f:98:
                    de:84:7c:05:67:ce:6a:14:38:87:a9:f1:8c:b5:68:
                    cb:68:7f:71:20:2b:f5:a0:63:f5:56:2f:a3:26:d2:
                    b7:6f:b1:5a:17:d7:38:99:08:fe:93:58:6f:fe:c3:
                    13:49:08:16:0b:a7:4d:67:00:52:31:67:23:4e:98:
                    ed:51:45:1d:b9:04:d9:0b:ec:d8:28:b3:4b:bd:ed:
                    36:79
                Exponent: 65537 (0x10001)
        X509v3 extensions:
            X509v3 Subject Key Identifier: 
                27:8E:67:11:74:C3:26:1D:3F:ED:33:63:B3:A4:D8:1D:30:E5:E8:D5
            X509v3 Authority Key Identifier: 
                keyid:27:8E:67:11:74:C3:26:1D:3F:ED:33:63:B3:A4:D8:1D:30:E5:E8:D5
                DirName:/C=US/ST=Montana/L=Bozeman/O=Sawtooth/OU=Consulting/CN=www.wolfssl.com/emailAddress=info@wolfssl.com
                serial:D0:BA:4C:24:4E:55:B9:48

            X509v3 Basic Constraints: 
                CA:TRUE
            X509v3 Subject Alternative Name: 
                DNS:san1.wolfssl.com, DNS:san2.wolfssl.com
    Signature Algorithm: sha256WithRSAEncryption
         69:e6:6b:a1:5a:6f:1f:07:14:b4:ea:cc:67:8f:0f:6d:22:c8:
         ec:cb:ca:a3:83:49:85:f3:12:82:39:b6:61:1b:64:4e:ee:9f:
         24:c3:d9:7a:03:72:89:96:82:05:71:20:c4:06:e9:52:f9:2f:
         90:68:73:48:1f:24:23:3b:09:c7:3c:f5:a1:04:e6:b7:e9:7e:
         ba:c1:9a:3a:dc:55:1a:b7:45:e6:46:27:86:90:21:0d:c7:e3:
         56:15:81:ba:da:2d:81:bf:69:a0:2c:cf:88:7a:f1:a0:41:4e:
         3d:17:7b:e0:94:fc:62:15:08:a5:cb:d9:41:a8:b9:a0:6e:ba:
         77:9a:48:b2:41:f3:25:63:63:d2:8e:24:c3:e2:cd:04:a8:58:
         b6:2f:b5:a1:46:54:f4:d1:9e:d5:b0:02:e0:fa:9a:44:11:f5:
         a9:31:ac:97:36:0b:64:1b:df:00:42:54:c2:13:b1:dc:f7:ba:
         2e:02:c1:3a:f5:c2:9c:a3:58:d6:b9:2c:d8:5f:83:57:ac:e2:
         9e:5f:2b:6e:51:82:ab:95:70:76:da:de:c9:ed:96:82:84:0b:
         8f:c0:58:42:6c:5a:bf:a1:ed:41:cf:b9:e4:e9:fc:68:e2:bf:
         ac:57:49:b6:75:59:8d:94:e1:dc:93:e4:32:9b:e7:c2:ac:bb:
         93:9a:bd:5b
-----BEGIN CERTIFICATE-----
MIIE2zCCA8OgAwIBAgIJANC6TCROVblIMA0GCSqGSIb3DQEBCwUAMIGUMQswCQYD
VQQGEwJVUzEQMA4GA1UECAwHTW9udGFuYTEQMA4GA1UEBwwHQm96ZW1hbjERMA8G
A1UECgwIU2F3dG9vdGgxEzARBgNVBAsMCkNvbnN1bHRpbmcxGDAWBgNVBAMMD3d3
dy53b2xmc3NsLmNvbTEfMB0GCSqGSIb3DQEJARYQaW5mb0B3b2xmc3NsLmNvbTAe
Fw0xNzA0MDkwNzI3MDdaFw0yMDAxMDQwNzI3MDdaMIGUMQswCQYDVQQGEwJVUzEQ
MA4GA1UECAwHTW9udGFuYTEQMA4GA1UEBwwHQm96ZW1hbjERMA8GA1UECgwIU2F3
dG9vdGgxEzARBgNVBAsMCkNvbnN1bHRpbmcxGDAWBgNVBAMMD3d3dy53b2xmc3Ns
LmNvbTEfMB0GCSqGSIb3DQEJARYQaW5mb0B3b2xmc3NsLmNvbTCCASIwDQYJKoZI
hvcNAQEBBQADggEPADCCAQoCggEBAL8Myi0Ush6EQlvNOB9K8k11EPG2NZ/fyn0D
mNOs3gNm7irx2LB9bgdUCxCYIU2AyxIg58xP3kV9yXJ3MurKkLtpUhADL6jzlcXx
i2JWG+9nb6QQQZWtCpvjpcCw0nB2UDBbqOgILHztp6J6jTgpHKzH7fJ8lbCVgn1J
XDjNdyXvvYB1U5Q8PcpjW58VtdMdEy8Z0TzbdjrMuH3J5cLX2kBv2CHccxtCLVOc
/hr8fat6Nj+Y3oR8BWfOahQ4h6nxjLVoy2h/cSAr9aBj9VYvoybSt2+xWhfXOJkI
/pNYb/7DE0kIFgunTWcAUjFnI06Y7VFFHbkE2Qvs2CizS73tNnkCAwEAAaOCASww
ggEoMB0GA1UdDgQWBBQnjmcRdMMmHT/tM2OzpNgdMOXo1TCByQYDVR0jBIHBMIG+
gBQnjmcRdMMmHT/tM2OzpNgdMOXo1aGBmqSBlzCBlDELMAkGA1UEBhMCVVMxEDAO
BgNVBAgMB01vbnRhbmExEDAOBgNVBAcMB0JvemVtYW4xETAPBgNVBAoMCFNhd3Rv
b3RoMRMwEQYDVQQLDApDb25zdWx0aW5nMRgwFgYDVQQDDA93d3cud29sZnNzbC5j
b20xHzAdBgkqhkiG9w0BCQEWEGluZm9Ad29sZnNzbC5jb22CCQDQukwkTlW5SDAM
BgNVHRMEBTADAQH/MC0GA1UdEQQmMCSCEHNhbjEud29sZnNzbC5jb22CEHNhbjIu
d29sZnNzbC5jb20wDQYJKoZIhvcNAQELBQADggEBAGnma6Fabx8HFLTqzGePD20i
yOzLyqODSYXzEoI5tmEbZE7unyTD2XoDcomWggVxIMQG6VL5L5Boc0gfJCM7Ccc8
9aEE5rfpfrrBmjrcVRq3ReZGJ4aQIQ3H41YVgbraLYG/aaAsz4h68aBBTj0Xe+CU
/GIVCKXL2UGouaBuuneaSLJB8yVjY9KOJMPizQSoWLYvtaFGVPTRntWwAuD6mkQR
9akxrJc2C2Qb3wBCVMITsdz3ui4CwTr1wpyjWNa5LNhfg1es4p5fK25RgquVcHba
3sntloKEC4/AWEJsWr+h7UHPueTp/Gjiv6xXSbZ1WY2U4dyT5DKb58Ksu5OavVs=
-----END CERTIFICATE-----
