Certificate:
    Data:
        Version: 3 (0x2)
        Serial Number:
            8e:5c:4e:b3:22:d8:8e:c3
    Signature Algorithm: sha256WithRSAEncryption
        Issuer: C=AU, ST=Queensland, L=Brisbane, O=wolfSSL Inc, OU=Engineering, CN=www.wolfssl.com/emailAddress=support@www.wolfsssl.com
        Validity
            Not Before: Jan 10 23:51:38 2017 GMT
            Not After : Feb  9 23:51:38 2017 GMT
        Subject: C=AU, ST=Queensland, L=Brisbane, O=wolfSSL Inc, OU=Engineering, CN=www.wolfssl.com/emailAddress=support@www.wolfsssl.com
        Subject Public Key Info:
            Public Key Algorithm: rsaEncryption
                Public-Key: (2048 bit)
                Modulus:
                    00:c0:95:08:e1:57:41:f2:71:6d:b7:d2:45:41:27:
                    01:65:c6:45:ae:f2:bc:24:30:b8:95:ce:2f:4e:d6:
                    f6:1c:88:bc:7c:9f:fb:a8:67:7f:fe:5c:9c:51:75:
                    f7:8a:ca:07:e7:35:2f:8f:e1:bd:7b:c0:2f:7c:ab:
                    64:a8:17:fc:ca:5d:7b:ba:e0:21:e5:72:2e:6f:2e:
                    86:d8:95:73:da:ac:1b:53:b9:5f:3f:d7:19:0d:25:
                    4f:e1:63:63:51:8b:0b:64:3f:ad:43:b8:a5:1c:5c:
                    34:b3:ae:00:a0:63:c5:f6:7f:0b:59:68:78:73:a6:
                    8c:18:a9:02:6d:af:c3:19:01:2e:b8:10:e3:c6:cc:
                    40:b4:69:a3:46:33:69:87:6e:c4:bb:17:a6:f3:e8:
                    dd:ad:73:bc:7b:2f:21:b5:fd:66:51:0c:bd:54:b3:
                    e1:6d:5f:1c:bc:23:73:d1:09:03:89:14:d2:10:b9:
                    64:c3:2a:d0:a1:96:4a:bc:e1:d4:1a:5b:c7:a0:c0:
                    c1:63:78:0f:44:37:30:32:96:80:32:23:95:a1:77:
                    ba:13:d2:97:73:e2:5d:25:c9:6a:0d:c3:39:60:a4:
                    b4:b0:69:42:42:09:e9:d8:08:bc:33:20:b3:58:22:
                    a7:aa:eb:c4:e1:e6:61:83:c5:d2:96:df:d9:d0:4f:
                    ad:d7
                Exponent: 65537 (0x10001)
        X509v3 extensions:
            X509v3 Inhibit Any Policy: critical
                1
            Netscape Comment: 
                Testing inhibit any
    Signature Algorithm: sha256WithRSAEncryption
         b4:24:ca:d6:13:8f:e6:c6:4a:0f:ac:b4:39:a0:86:60:3f:e0:
         7d:a2:fc:3d:49:bc:eb:e5:1a:85:87:e1:85:89:50:16:27:27:
         90:5d:ce:a0:ed:49:c9:df:7e:a2:1e:aa:29:7b:a1:1b:3c:51:
         70:6d:c2:c1:a3:48:a1:f5:11:c7:bf:0d:54:fa:88:72:ef:36:
         d3:2f:b8:c3:6c:7c:77:2d:2b:c9:a7:45:9c:13:74:d8:79:3f:
         37:c3:f9:7b:6a:5b:a1:7c:dc:8e:c9:8d:ae:81:6a:10:01:f3:
         75:dc:6a:55:e1:cc:e5:2e:d0:b9:c7:2b:32:fa:23:6b:f0:c7:
         2c:2f:ac:6c:08:2b:77:08:fb:34:61:68:ee:5a:5f:92:74:0a:
         ed:97:54:34:33:08:31:8e:69:64:db:54:7b:15:7c:4d:a2:56:
         3b:1d:ba:38:bb:94:48:66:54:06:58:30:06:20:a6:27:19:18:
         a2:bd:37:0d:29:10:d4:4f:4e:3f:16:95:db:cf:d6:11:5c:5f:
         cb:c5:ba:a0:1b:6e:62:0c:57:e2:cf:40:ee:eb:6e:c8:18:0e:
         98:e7:7b:4c:cf:34:ce:dd:c4:b4:10:7a:ef:22:77:c9:92:61:
         2d:36:96:e9:b4:fb:44:33:c1:b9:d0:ea:ab:40:2c:9e:fb:66:
         98:49:82:f4
-----BEGIN CERTIFICATE-----
MIIEAjCCAuqgAwIBAgIJAI5cTrMi2I7DMA0GCSqGSIb3DQEBCwUAMIGkMQswCQYD
VQQGEwJBVTETMBEGA1UECAwKUXVlZW5zbGFuZDERMA8GA1UEBwwIQnJpc2JhbmUx
FDASBgNVBAoMC3dvbGZTU0wgSW5jMRQwEgYDVQQLDAtFbmdpbmVlcmluZzEYMBYG
A1UEAwwPd3d3LndvbGZzc2wuY29tMScwJQYJKoZIhvcNAQkBFhhzdXBwb3J0QHd3
dy53b2xmc3NzbC5jb20wHhcNMTcwMTEwMjM1MTM4WhcNMTcwMjA5MjM1MTM4WjCB
pDELMAkGA1UEBhMCQVUxEzARBgNVBAgMClF1ZWVuc2xhbmQxETAPBgNVBAcMCEJy
aXNiYW5lMRQwEgYDVQQKDAt3b2xmU1NMIEluYzEUMBIGA1UECwwLRW5naW5lZXJp
bmcxGDAWBgNVBAMMD3d3dy53b2xmc3NsLmNvbTEnMCUGCSqGSIb3DQEJARYYc3Vw
cG9ydEB3d3cud29sZnNzc2wuY29tMIIBIjANBgkqhkiG9w0BAQEFAAOCAQ8AMIIB
CgKCAQEAwJUI4VdB8nFtt9JFQScBZcZFrvK8JDC4lc4vTtb2HIi8fJ/7qGd//lyc
UXX3isoH5zUvj+G9e8AvfKtkqBf8yl17uuAh5XIuby6G2JVz2qwbU7lfP9cZDSVP
4WNjUYsLZD+tQ7ilHFw0s64AoGPF9n8LWWh4c6aMGKkCba/DGQEuuBDjxsxAtGmj
RjNph27Euxem8+jdrXO8ey8htf1mUQy9VLPhbV8cvCNz0QkDiRTSELlkwyrQoZZK
vOHUGlvHoMDBY3gPRDcwMpaAMiOVoXe6E9KXc+JdJclqDcM5YKS0sGlCQgnp2Ai8
MyCzWCKnquvE4eZhg8XSlt/Z0E+t1wIDAQABozUwMzANBgNVHTYBAf8EAwIBATAi
BglghkgBhvhCAQ0EFRYTVGVzdGluZyBpbmhpYml0IGFueTANBgkqhkiG9w0BAQsF
AAOCAQEAtCTK1hOP5sZKD6y0OaCGYD/gfaL8PUm86+UahYfhhYlQFicnkF3OoO1J
yd9+oh6qKXuhGzxRcG3CwaNIofURx78NVPqIcu820y+4w2x8dy0ryadFnBN02Hk/
N8P5e2pboXzcjsmNroFqEAHzddxqVeHM5S7QuccrMvoja/DHLC+sbAgrdwj7NGFo
7lpfknQK7ZdUNDMIMY5pZNtUexV8TaJWOx26OLuUSGZUBlgwBiCmJxkYor03DSkQ
1E9OPxaV28/WEVxfy8W6oBtuYgxX4s9A7utuyBgOmOd7TM80zt3EtBB67yJ3yZJh
LTaW6bT7RDPBudDqq0AsnvtmmEmC9A==
-----END CERTIFICATE-----
