Certificate:
    Data:
        Version: 3 (0x2)
        Serial Number:
            c3:1d:e4:11:a0:7e:99:5d
    Signature Algorithm: sha256WithRSAEncryption
        Issuer: C=AU, ST=Queensland, L=Brisbane, O=wolfSSL Inc, OU=Engineering, CN=www.wolfssl.com/emailAddress=support@www.wolfsssl.com
        Validity
            Not Before: Apr 17 20:33:48 2017 GMT
            Not After : May 17 20:33:48 2017 GMT
        Subject: C=AU, ST=Queensland, L=Brisbane, O=wolfSSL Inc, OU=Engineering, CN=www.wolfssl.com/emailAddress=support@www.wolfsssl.com
        Subject Public Key Info:
            Public Key Algorithm: rsaEncryption
                Public-Key: (2048 bit)
                Modulus:
                    00:c0:95:08:e1:57:41:f2:71:6d:b7:d2:45:41:27:
                    01:65:c6:45:ae:f2:bc:24:30:b8:95:ce:2f:4e:d6:
                    f6:1c:88:bc:7c:9f:fb:a8:67:7f:fe:5c:9c:51:75:
                    f7:8a:ca:07:e7:35:2f:8f:e1:bd:7b:c0:2f:7c:ab:
                    64:a8:17:fc:ca:5d:7b:ba:e0:21:e5:72:2e:6f:2e:
                    86:d8:95:73:da:ac:1b:53:b9:5f:3f:d7:19:0d:25:
                    4f:e1:63:63:51:8b:0b:64:3f:ad:43:b8:a5:1c:5c:
                    34:b3:ae:00:a0:63:c5:f6:7f:0b:59:68:78:73:a6:
                    8c:18:a9:02:6d:af:c3:19:01:2e:b8:10:e3:c6:cc:
                    40:b4:69:a3:46:33:69:87:6e:c4:bb:17:a6:f3:e8:
                    dd:ad:73:bc:7b:2f:21:b5:fd:66:51:0c:bd:54:b3:
                    e1:6d:5f:1c:bc:23:73:d1:09:03:89:14:d2:10:b9:
                    64:c3:2a:d0:a1:96:4a:bc:e1:d4:1a:5b:c7:a0:c0:
                    c1:63:78:0f:44:37:30:32:96:80:32:23:95:a1:77:
                    ba:13:d2:97:73:e2:5d:25:c9:6a:0d:c3:39:60:a4:
                    b4:b0:69:42:42:09:e9:d8:08:bc:33:20:b3:58:22:
                    a7:aa:eb:c4:e1:e6:61:83:c5:d2:96:df:d9:d0:4f:
                    ad:d7
                Exponent: 65537 (0x10001)
        X509v3 extensions:
            X509v3 Subject Alternative Name: 
                DNS:san1.wolfssl.com, DNS:san2.wolfssl.com, email:san@wolfssl.com, URI:http://san1.wolfssl.com/example-path/
    Signature Algorithm: sha256WithRSAEncryption
         29:8e:74:70:e0:eb:12:2e:75:19:02:7a:f1:81:5b:b5:cb:23:
         72:4f:d5:19:9e:c8:fd:15:41:47:0b:0a:5f:c7:f7:59:8c:53:
         82:37:10:7f:e0:3f:e1:51:a3:b9:6f:10:71:ab:e1:1a:b8:24:
         96:01:77:ab:9e:25:62:4a:a5:88:00:c1:18:71:00:97:ed:ba:
         38:4d:da:1a:eb:fb:62:33:1c:93:f4:be:46:ee:40:fd:7c:77:
         e8:84:24:21:7a:93:b1:a9:52:4e:0c:10:98:c0:65:63:ee:1c:
         85:55:cc:30:9d:83:67:e8:83:96:a1:ce:7b:98:33:97:c3:13:
         55:13:f6:95:a2:45:80:ee:10:79:46:76:ea:8d:b6:d1:8d:b2:
         cc:7f:a5:69:1f:8c:4c:24:d3:8c:3f:33:76:e5:da:be:de:c0:
         6c:24:80:cd:d9:39:7d:b2:0a:a7:7f:66:44:d8:56:36:a5:0b:
         01:a0:cf:a4:12:ec:ae:cf:cb:4a:16:f3:d8:ef:a4:b4:e2:bd:
         05:d0:fe:54:88:8a:d4:32:34:90:39:7f:28:1d:a5:48:71:bd:
         e8:52:67:60:8e:89:ea:17:86:77:4c:bc:82:1d:96:e9:bb:cf:
         40:30:6a:b9:9c:5e:f3:a1:45:97:0d:23:41:80:39:a2:aa:75:
         44:24:55:81
-----BEGIN CERTIFICATE-----
MIIENjCCAx6gAwIBAgIJAMMd5BGgfpldMA0GCSqGSIb3DQEBCwUAMIGkMQswCQYD
VQQGEwJBVTETMBEGA1UECAwKUXVlZW5zbGFuZDERMA8GA1UEBwwIQnJpc2JhbmUx
FDASBgNVBAoMC3dvbGZTU0wgSW5jMRQwEgYDVQQLDAtFbmdpbmVlcmluZzEYMBYG
A1UEAwwPd3d3LndvbGZzc2wuY29tMScwJQYJKoZIhvcNAQkBFhhzdXBwb3J0QHd3
dy53b2xmc3NzbC5jb20wHhcNMTcwNDE3MjAzMzQ4WhcNMTcwNTE3MjAzMzQ4WjCB
pDELMAkGA1UEBhMCQVUxEzARBgNVBAgMClF1ZWVuc2xhbmQxETAPBgNVBAcMCEJy
aXNiYW5lMRQwEgYDVQQKDAt3b2xmU1NMIEluYzEUMBIGA1UECwwLRW5naW5lZXJp
bmcxGDAWBgNVBAMMD3d3dy53b2xmc3NsLmNvbTEnMCUGCSqGSIb3DQEJARYYc3Vw
cG9ydEB3d3cud29sZnNzc2wuY29tMIIBIjANBgkqhkiG9w0BAQEFAAOCAQ8AMIIB
CgKCAQEAwJUI4VdB8nFtt9JFQScBZcZFrvK8JDC4lc4vTtb2HIi8fJ/7qGd//lyc
UXX3isoH5zUvj+G9e8AvfKtkqBf8yl17uuAh5XIuby6G2JVz2qwbU7lfP9cZDSVP
4WNjUYsLZD+tQ7ilHFw0s64AoGPF9n8LWWh4c6aMGKkCba/DGQEuuBDjxsxAtGmj
RjNph27Euxem8+jdrXO8ey8htf1mUQy9VLPhbV8cvCNz0QkDiRTSELlkwyrQoZZK
vOHUGlvHoMDBY3gPRDcwMpaAMiOVoXe6E9KXc+JdJclqDcM5YKS0sGlCQgnp2Ai8
MyCzWCKnquvE4eZhg8XSlt/Z0E+t1wIDAQABo2kwZzBlBgNVHREEXjBcghBzYW4x
LndvbGZzc2wuY29tghBzYW4yLndvbGZzc2wuY29tgQ9zYW5Ad29sZnNzbC5jb22G
JWh0dHA6Ly9zYW4xLndvbGZzc2wuY29tL2V4YW1wbGUtcGF0aC8wDQYJKoZIhvcN
AQELBQADggEBACmOdHDg6xIudRkCevGBW7XLI3JP1RmeyP0VQUcLCl/H91mMU4I3
EH/gP+FRo7lvEHGr4Rq4JJYBd6ueJWJKpYgAwRhxAJftujhN2hrr+2IzHJP0vkbu
QP18d+iEJCF6k7GpUk4MEJjAZWPuHIVVzDCdg2fog5ahznuYM5fDE1UT9pWiRYDu
EHlGduqNttGNssx/pWkfjEwk04w/M3bl2r7ewGwkgM3ZOX2yCqd/ZkTYVjalCwGg
z6QS7K7Py0oW89jvpLTivQXQ/lSIitQyNJA5fygdpUhxvehSZ2COieoXhndMvIId
lum7z0AwarmcXvOhRZcNI0GAOaKqdUQkVYE=
-----END CERTIFICATE-----
