Certificate:
    Data:
        Version: 3 (0x2)
        Serial Number:
            ba:71:63:4d:96:0f:ed:8a
    Signature Algorithm: sha256WithRSAEncryption
        Issuer: C=AU, ST=Queensland, L=Brisbane, O=wolfSSL Inc, OU=Engineering, CN=www.wolfssl.com/emailAddress=support@www.wolfsssl.com
        Validity
            Not Before: Jan 10 23:51:38 2017 GMT
            Not After : Feb  9 23:51:38 2017 GMT
        Subject: C=AU, ST=Queensland, L=Brisbane, O=wolfSSL Inc, OU=Engineering, CN=www.wolfssl.com/emailAddress=support@www.wolfsssl.com
        Subject Public Key Info:
            Public Key Algorithm: rsaEncryption
                Public-Key: (2048 bit)
                Modulus:
                    00:c0:95:08:e1:57:41:f2:71:6d:b7:d2:45:41:27:
                    01:65:c6:45:ae:f2:bc:24:30:b8:95:ce:2f:4e:d6:
                    f6:1c:88:bc:7c:9f:fb:a8:67:7f:fe:5c:9c:51:75:
                    f7:8a:ca:07:e7:35:2f:8f:e1:bd:7b:c0:2f:7c:ab:
                    64:a8:17:fc:ca:5d:7b:ba:e0:21:e5:72:2e:6f:2e:
                    86:d8:95:73:da:ac:1b:53:b9:5f:3f:d7:19:0d:25:
                    4f:e1:63:63:51:8b:0b:64:3f:ad:43:b8:a5:1c:5c:
                    34:b3:ae:00:a0:63:c5:f6:7f:0b:59:68:78:73:a6:
                    8c:18:a9:02:6d:af:c3:19:01:2e:b8:10:e3:c6:cc:
                    40:b4:69:a3:46:33:69:87:6e:c4:bb:17:a6:f3:e8:
                    dd:ad:73:bc:7b:2f:21:b5:fd:66:51:0c:bd:54:b3:
                    e1:6d:5f:1c:bc:23:73:d1:09:03:89:14:d2:10:b9:
                    64:c3:2a:d0:a1:96:4a:bc:e1:d4:1a:5b:c7:a0:c0:
                    c1:63:78:0f:44:37:30:32:96:80:32:23:95:a1:77:
                    ba:13:d2:97:73:e2:5d:25:c9:6a:0d:c3:39:60:a4:
                    b4:b0:69:42:42:09:e9:d8:08:bc:33:20:b3:58:22:
                    a7:aa:eb:c4:e1:e6:61:83:c5:d2:96:df:d9:d0:4f:
                    ad:d7
                Exponent: 65537 (0x10001)
        X509v3 extensions:
            X509v3 Name Constraints: critical
                Permitted:
                  email:.wolfssl.com

            Netscape Comment: 
                Testing name constraints
    Signature Algorithm: sha256WithRSAEncryption
         a6:df:95:e1:b7:50:c4:b3:ad:e6:28:e8:88:ca:fd:5d:8c:b0:
         c0:dc:50:4f:0d:87:13:a4:6c:07:45:72:dc:71:69:7c:dc:e7:
         85:0d:1a:9c:a0:28:dd:f8:3f:53:b6:0e:80:c3:7a:2f:0b:be:
         42:fa:99:b9:6b:6b:67:0f:44:a8:9f:68:83:2e:38:e5:d2:67:
         a1:b1:9e:3e:47:b3:70:5b:7d:64:45:ed:a2:1b:97:ae:96:ed:
         7d:5c:0b:70:83:ff:e9:e4:6c:f5:d9:db:de:38:ea:1c:6f:59:
         ec:70:e7:a5:37:dc:cf:83:d0:87:4c:6b:55:09:f8:cf:ac:91:
         4f:96:97:db:2b:48:c1:3f:54:98:59:77:fa:2e:87:a8:e5:2a:
         d2:e5:04:a2:d2:99:4f:ba:12:f7:74:70:36:5c:23:24:38:de:
         94:6b:b8:9e:b6:49:35:00:06:47:4b:33:29:9b:c5:a6:01:18:
         0f:94:94:75:49:8b:d3:aa:44:88:fd:28:dc:db:41:59:02:7e:
         cf:16:72:58:cb:8c:d1:fc:35:65:a1:82:41:e0:cd:72:68:01:
         0d:fa:0c:03:58:fb:62:8b:18:e7:5c:79:37:3c:e3:f6:cd:98:
         e7:8e:f8:30:c5:88:10:e5:4a:22:c0:17:33:f7:3b:36:e9:89:
         34:1a:15:7d
-----BEGIN CERTIFICATE-----
MIIEGDCCAwCgAwIBAgIJALpxY02WD+2KMA0GCSqGSIb3DQEBCwUAMIGkMQswCQYD
VQQGEwJBVTETMBEGA1UECAwKUXVlZW5zbGFuZDERMA8GA1UEBwwIQnJpc2JhbmUx
FDASBgNVBAoMC3dvbGZTU0wgSW5jMRQwEgYDVQQLDAtFbmdpbmVlcmluZzEYMBYG
A1UEAwwPd3d3LndvbGZzc2wuY29tMScwJQYJKoZIhvcNAQkBFhhzdXBwb3J0QHd3
dy53b2xmc3NzbC5jb20wHhcNMTcwMTEwMjM1MTM4WhcNMTcwMjA5MjM1MTM4WjCB
pDELMAkGA1UEBhMCQVUxEzARBgNVBAgMClF1ZWVuc2xhbmQxETAPBgNVBAcMCEJy
aXNiYW5lMRQwEgYDVQQKDAt3b2xmU1NMIEluYzEUMBIGA1UECwwLRW5naW5lZXJp
bmcxGDAWBgNVBAMMD3d3dy53b2xmc3NsLmNvbTEnMCUGCSqGSIb3DQEJARYYc3Vw
cG9ydEB3d3cud29sZnNzc2wuY29tMIIBIjANBgkqhkiG9w0BAQEFAAOCAQ8AMIIB
CgKCAQEAwJUI4VdB8nFtt9JFQScBZcZFrvK8JDC4lc4vTtb2HIi8fJ/7qGd//lyc
UXX3isoH5zUvj+G9e8AvfKtkqBf8yl17uuAh5XIuby6G2JVz2qwbU7lfP9cZDSVP
4WNjUYsLZD+tQ7ilHFw0s64AoGPF9n8LWWh4c6aMGKkCba/DGQEuuBDjxsxAtGmj
RjNph27Euxem8+jdrXO8ey8htf1mUQy9VLPhbV8cvCNz0QkDiRTSELlkwyrQoZZK
vOHUGlvHoMDBY3gPRDcwMpaAMiOVoXe6E9KXc+JdJclqDcM5YKS0sGlCQgnp2Ai8
MyCzWCKnquvE4eZhg8XSlt/Z0E+t1wIDAQABo0swSTAeBgNVHR4BAf8EFDASoBAw
DoEMLndvbGZzc2wuY29tMCcGCWCGSAGG+EIBDQQaFhhUZXN0aW5nIG5hbWUgY29u
c3RyYWludHMwDQYJKoZIhvcNAQELBQADggEBAKbfleG3UMSzreYo6IjK/V2MsMDc
UE8NhxOkbAdFctxxaXzc54UNGpygKN34P1O2DoDDei8LvkL6mblra2cPRKifaIMu
OOXSZ6Gxnj5Hs3BbfWRF7aIbl66W7X1cC3CD/+nkbPXZ29446hxvWexw56U33M+D
0IdMa1UJ+M+skU+Wl9srSME/VJhZd/ouh6jlKtLlBKLSmU+6Evd0cDZcIyQ43pRr
uJ62STUABkdLMymbxaYBGA+UlHVJi9OqRIj9KNzbQVkCfs8WcljLjNH8NWWhgkHg
zXJoAQ36DANY+2KLGOdceTc84/bNmOeO+DDFiBDlSiLAFzP3OzbpiTQaFX0=
-----END CERTIFICATE-----
