Certificate:
    Data:
        Version: 3 (0x2)
        Serial Number:
            d4:84:8a:4c:b9:9f:83:6e
    Signature Algorithm: sha256WithRSAEncryption
        Issuer: C=AU, ST=Queensland, L=Brisbane, O=wolfSSL Inc, OU=Engineering, CN=www.wolfssl.com/emailAddress=support@www.wolfsssl.com
        Validity
            Not Before: Apr 28 15:01:50 2017 GMT
            Not After : May 28 15:01:50 2017 GMT
        Subject: C=AU, ST=Queensland, L=Brisbane, O=wolfSSL Inc, OU=Engineering, CN=www.wolfssl.com/emailAddress=support@www.wolfsssl.com
        Subject Public Key Info:
            Public Key Algorithm: rsaEncryption
                Public-Key: (2048 bit)
                Modulus:
                    00:c0:95:08:e1:57:41:f2:71:6d:b7:d2:45:41:27:
                    01:65:c6:45:ae:f2:bc:24:30:b8:95:ce:2f:4e:d6:
                    f6:1c:88:bc:7c:9f:fb:a8:67:7f:fe:5c:9c:51:75:
                    f7:8a:ca:07:e7:35:2f:8f:e1:bd:7b:c0:2f:7c:ab:
                    64:a8:17:fc:ca:5d:7b:ba:e0:21:e5:72:2e:6f:2e:
                    86:d8:95:73:da:ac:1b:53:b9:5f:3f:d7:19:0d:25:
                    4f:e1:63:63:51:8b:0b:64:3f:ad:43:b8:a5:1c:5c:
                    34:b3:ae:00:a0:63:c5:f6:7f:0b:59:68:78:73:a6:
                    8c:18:a9:02:6d:af:c3:19:01:2e:b8:10:e3:c6:cc:
                    40:b4:69:a3:46:33:69:87:6e:c4:bb:17:a6:f3:e8:
                    dd:ad:73:bc:7b:2f:21:b5:fd:66:51:0c:bd:54:b3:
                    e1:6d:5f:1c:bc:23:73:d1:09:03:89:14:d2:10:b9:
                    64:c3:2a:d0:a1:96:4a:bc:e1:d4:1a:5b:c7:a0:c0:
                    c1:63:78:0f:44:37:30:32:96:80:32:23:95:a1:77:
                    ba:13:d2:97:73:e2:5d:25:c9:6a:0d:c3:39:60:a4:
                    b4:b0:69:42:42:09:e9:d8:08:bc:33:20:b3:58:22:
                    a7:aa:eb:c4:e1:e6:61:83:c5:d2:96:df:d9:d0:4f:
                    ad:d7
                Exponent: 65537 (0x10001)
        X509v3 extensions:
            X509v3 Subject Alternative Name: 
                DNS:san1.wolfssl.com, DNS:san2.wolfssl.com, email:san@wolfssl.com, URI:http://san1.wolfssl.com/example-path/
            Netscape Comment: 
                Testing SAN
    Signature Algorithm: sha256WithRSAEncryption
         55:94:93:09:39:1f:65:02:e1:24:b5:9b:fe:66:66:70:a6:35:
         b9:01:1f:90:60:50:e7:c8:02:75:48:5c:ae:67:1e:bf:c5:c6:
         bd:bc:80:45:3a:53:03:98:69:15:0f:ca:d4:4c:0a:06:d1:b2:
         3a:81:48:fd:c3:d1:ed:fc:fa:b2:b3:6c:f2:a4:ae:71:27:0b:
         eb:ba:3f:73:cf:36:f2:18:10:d0:4f:94:f9:54:8a:c5:dc:76:
         f8:c1:16:24:b1:04:06:b5:7e:42:ed:da:2b:82:e4:06:ac:81:
         86:5c:5f:07:a5:24:3e:67:dd:e7:ee:16:9e:7c:6c:ce:52:1f:
         ac:6b:03:47:6b:35:bb:51:d2:55:83:4c:b4:bd:32:09:cc:42:
         51:c5:c4:77:16:75:f7:bc:fb:95:5c:3c:77:6e:02:8f:ca:d8:
         07:27:47:48:da:55:4c:8d:4f:f5:fd:82:31:0c:0f:ba:6e:00:
         7d:bd:c4:61:d5:5c:94:e3:18:d8:4d:50:58:a8:92:59:16:91:
         ad:fa:9b:48:bf:62:e8:5a:ef:2c:a3:fd:db:eb:6e:7d:fa:79:
         71:ae:b0:59:0b:7a:33:75:4f:1a:5d:e9:09:2f:e0:18:6c:38:
         0e:9d:d0:a4:80:6b:cd:8d:2d:bd:fd:2d:37:a4:5c:fe:57:78:
         e7:58:ff:30
-----BEGIN CERTIFICATE-----
MIIEVDCCAzygAwIBAgIJANSEiky5n4NuMA0GCSqGSIb3DQEBCwUAMIGkMQswCQYD
VQQGEwJBVTETMBEGA1UECAwKUXVlZW5zbGFuZDERMA8GA1UEBwwIQnJpc2JhbmUx
FDASBgNVBAoMC3dvbGZTU0wgSW5jMRQwEgYDVQQLDAtFbmdpbmVlcmluZzEYMBYG
A1UEAwwPd3d3LndvbGZzc2wuY29tMScwJQYJKoZIhvcNAQkBFhhzdXBwb3J0QHd3
dy53b2xmc3NzbC5jb20wHhcNMTcwNDI4MTUwMTUwWhcNMTcwNTI4MTUwMTUwWjCB
pDELMAkGA1UEBhMCQVUxEzARBgNVBAgMClF1ZWVuc2xhbmQxETAPBgNVBAcMCEJy
aXNiYW5lMRQwEgYDVQQKDAt3b2xmU1NMIEluYzEUMBIGA1UECwwLRW5naW5lZXJp
bmcxGDAWBgNVBAMMD3d3dy53b2xmc3NsLmNvbTEnMCUGCSqGSIb3DQEJARYYc3Vw
cG9ydEB3d3cud29sZnNzc2wuY29tMIIBIjANBgkqhkiG9w0BAQEFAAOCAQ8AMIIB
CgKCAQEAwJUI4VdB8nFtt9JFQScBZcZFrvK8JDC4lc4vTtb2HIi8fJ/7qGd//lyc
UXX3isoH5zUvj+G9e8AvfKtkqBf8yl17uuAh5XIuby6G2JVz2qwbU7lfP9cZDSVP
4WNjUYsLZD+tQ7ilHFw0s64AoGPF9n8LWWh4c6aMGKkCba/DGQEuuBDjxsxAtGmj
RjNph27Euxem8+jdrXO8ey8htf1mUQy9VLPhbV8cvCNz0QkDiRTSELlkwyrQoZZK
vOHUGlvHoMDBY3gPRDcwMpaAMiOVoXe6E9KXc+JdJclqDcM5YKS0sGlCQgnp2Ai8
MyCzWCKnquvE4eZhg8XSlt/Z0E+t1wIDAQABo4GGMIGDMGUGA1UdEQReMFyCEHNh
bjEud29sZnNzbC5jb22CEHNhbjIud29sZnNzbC5jb22BD3NhbkB3b2xmc3NsLmNv
bYYlaHR0cDovL3NhbjEud29sZnNzbC5jb20vZXhhbXBsZS1wYXRoLzAaBglghkgB
hvhCAQ0EDRYLVGVzdGluZyBTQU4wDQYJKoZIhvcNAQELBQADggEBAFWUkwk5H2UC
4SS1m/5mZnCmNbkBH5BgUOfIAnVIXK5nHr/Fxr28gEU6UwOYaRUPytRMCgbRsjqB
SP3D0e38+rKzbPKkrnEnC+u6P3PPNvIYENBPlPlUisXcdvjBFiSxBAa1fkLt2iuC
5AasgYZcXwelJD5n3efuFp58bM5SH6xrA0drNbtR0lWDTLS9MgnMQlHFxHcWdfe8
+5VcPHduAo/K2AcnR0jaVUyNT/X9gjEMD7puAH29xGHVXJTjGNhNUFioklkWka36
m0i/Yuha7yyj/dvrbn36eXGusFkLejN1Txpd6Qkv4BhsOA6d0KSAa82NLb39LTek
XP5XeOdY/zA=
-----END CERTIFICATE-----
